; Function Attrs: mustprogress uwtable
define void @_ZNK6casadi6MXNode12get_nzassignERKNS_2MXERKSt6vectorIxSaIxEE(ptr dead_on_unwind noalias writable sret(%"class.casadi::MX") align 8 %0, ptr noundef nonnull align 8 dereferenceable(64) %1, ptr noundef nonnull align 8 dereferenceable(8) %2, ptr noundef nonnull align 8 dereferenceable(24) %3) unnamed_addr #3 align 2 personality ptr @__gxx_personality_v0 {
  %5 = alloca %"class.casadi::MX", align 8
  %6 = load ptr, ptr %3, align 8
  %7 = getelementptr inbounds i8, ptr %3, i64 8
  %8 = load ptr, ptr %7, align 8
  %.not12 = icmp eq ptr %6, %8
  br i1 %.not12, label %.critedge, label %.lr.ph

.lr.ph:                                           ; preds = %4, %.lr.ph
  %.sroa.09.013 = phi ptr [ %11, %.lr.ph ], [ %6, %4 ]
  %9 = load i64, ptr %.sroa.09.013, align 8
  %10 = icmp sgt i64 %9, -1
  %11 = getelementptr inbounds i8, ptr %.sroa.09.013, i64 8
  %.not = icmp eq ptr %11, %8
  %12 = select i1 %.not, i1 true, i1 %10
  br i1 %12, label %._crit_edge, label %.lr.ph, !llvm.loop !127

._crit_edge:                                      ; preds = %.lr.ph
  br i1 %10, label %13, label %.critedge

.critedge:                                        ; preds = %4, %._crit_edge
  tail call void @_ZN6casadi12SharedObjectC2ERKS0_(ptr noundef nonnull align 8 dereferenceable(8) %0, ptr noundef nonnull align 8 dereferenceable(8) %2)
  br label %17

13:                                               ; preds = %._crit_edge
  call void @_ZNK6casadi20SharedObjectInternal16shared_from_thisINS_2MXEEEKT_v(ptr dead_on_unwind nonnull writable sret(%"class.casadi::MX") align 8 %5, ptr noundef nonnull align 8 dereferenceable(24) %1)
  invoke void @_ZN6casadi11SetNonzerosILb0EE6createERKNS_2MXES4_RKSt6vectorIxSaIxEE(ptr dead_on_unwind writable sret(%"class.casadi::MX") align 8 %0, ptr noundef nonnull align 8 dereferenceable(8) %2, ptr noundef nonnull align 8 dereferenceable(8) %5, ptr noundef nonnull align 8 dereferenceable(24) %3)
          to label %14 unwind label %15

14:                                               ; preds = %13
  call void @_ZN6casadi2MXD1Ev(ptr noundef nonnull align 8 dereferenceable(8) %5) #31
  br label %17

15:                                               ; preds = %13
  %16 = landingpad { ptr, i32 }
          cleanup
  call void @_ZN6casadi2MXD1Ev(ptr noundef nonnull align 8 dereferenceable(8) %5) #31
  resume { ptr, i32 } %16

17:                                               ; preds = %14, %.critedge
  ret void
}